Microsoft (R) COFF/PE Dumper Version 14.44.35211.0
Copyright (C) Microsoft Corporation.  All rights reserved.


Dump of file benchmarkexe.exe

File Type: EXECUTABLE IMAGE

  0000000140001000: 48 8D 05 99 20 04  lea         rax,[00000001400430A0h]
                    00
  0000000140001007: C3                 ret
  0000000140001008: CC                 int         3
  0000000140001009: CC                 int         3
  000000014000100A: CC                 int         3
  000000014000100B: CC                 int         3
  000000014000100C: CC                 int         3
  000000014000100D: CC                 int         3
  000000014000100E: CC                 int         3
  000000014000100F: CC                 int         3
  0000000140001010: 48 83 EC 28        sub         rsp,28h
  0000000140001014: F3 0F 10 0D 14 12  movss       xmm1,dword ptr [0000000140002230h]
                    00 00
  000000014000101C: 4C 8D 05 7D 20 00  lea         r8,[00000001400030A0h]
                    00
  0000000140001023: F3 0F 10 15 01 12  movss       xmm2,dword ptr [000000014000222Ch]
                    00 00
  000000014000102B: 33 D2              xor         edx,edx
  000000014000102D: 0F 1F 00           nop         dword ptr [rax]
  0000000140001030: 0F B7 CA           movzx       ecx,dx
  0000000140001033: C1 E1 10           shl         ecx,10h
  0000000140001036: 8D 04 09           lea         eax,[rcx+rcx]
  0000000140001039: 81 E1 00 00 00 80  and         ecx,80000000h
  000000014000103F: 44 8B C8           mov         r9d,eax
  0000000140001042: 44 8B D0           mov         r10d,eax
  0000000140001045: 41 C1 E9 04        shr         r9d,4
  0000000140001049: 41 C1 EA 11        shr         r10d,11h
  000000014000104D: 41 81 C1 00 00 00  add         r9d,70000000h
                    70
  0000000140001054: 41 81 CA 00 00 00  or          r10d,3F000000h
                    3F
  000000014000105B: 3D 00 00 00 08     cmp         eax,8000000h
  0000000140001060: 73 0B              jae         000000014000106D
  0000000140001062: 66 41 0F 6E C2     movd        xmm0,r10d
  0000000140001067: F3 0F 5C C1        subss       xmm0,xmm1
  000000014000106B: EB 09              jmp         0000000140001076
  000000014000106D: 66 41 0F 6E C1     movd        xmm0,r9d
  0000000140001072: F3 0F 59 C2        mulss       xmm0,xmm2
  0000000140001076: 66 0F 7E C0        movd        eax,xmm0
  000000014000107A: FF C2              inc         edx
  000000014000107C: 0B C8              or          ecx,eax
  000000014000107E: 41 89 08           mov         dword ptr [r8],ecx
  0000000140001081: 49 83 C0 04        add         r8,4
  0000000140001085: 81 FA 00 00 01 00  cmp         edx,10000h
  000000014000108B: 7C A3              jl          0000000140001030
  000000014000108D: F3 0F 10 0D E7 8A  movss       xmm1,dword ptr [0000000140019B7Ch]
                    01 00
  0000000140001095: 48 8D 0D 84 11 00  lea         rcx,[0000000140002220h]
                    00
  000000014000109C: 0F 5A C9           cvtps2pd    xmm1,xmm1
  000000014000109F: 66 48 0F 7E CA     movq        rdx,xmm1
  00000001400010A4: E8 07 00 00 00     call        00000001400010B0
  00000001400010A9: 33 C0              xor         eax,eax
  00000001400010AB: 48 83 C4 28        add         rsp,28h
  00000001400010AF: C3                 ret
  00000001400010B0: 48 89 4C 24 08     mov         qword ptr [rsp+8],rcx
  00000001400010B5: 48 89 54 24 10     mov         qword ptr [rsp+10h],rdx
  00000001400010BA: 4C 89 44 24 18     mov         qword ptr [rsp+18h],r8
  00000001400010BF: 4C 89 4C 24 20     mov         qword ptr [rsp+20h],r9
  00000001400010C4: 53                 push        rbx
  00000001400010C5: 57                 push        rdi
  00000001400010C6: 48 83 EC 38        sub         rsp,38h
  00000001400010CA: B9 01 00 00 00     mov         ecx,1
  00000001400010CF: 48 8D 7C 24 58     lea         rdi,[rsp+58h]
  00000001400010D4: FF 15 96 10 00 00  call        qword ptr [0000000140002170h]
  00000001400010DA: 48 8B D8           mov         rbx,rax
  00000001400010DD: E8 1E FF FF FF     call        0000000140001000
  00000001400010E2: 4C 8B 44 24 50     mov         r8,qword ptr [rsp+50h]
  00000001400010E7: 45 33 C9           xor         r9d,r9d
  00000001400010EA: 48 8B D3           mov         rdx,rbx
  00000001400010ED: 48 89 7C 24 20     mov         qword ptr [rsp+20h],rdi
  00000001400010F2: 48 8B 08           mov         rcx,qword ptr [rax]
  00000001400010F5: FF 15 6D 10 00 00  call        qword ptr [0000000140002168h]
  00000001400010FB: 48 83 C4 38        add         rsp,38h
  00000001400010FF: 5F                 pop         rdi
  0000000140001100: 5B                 pop         rbx
  0000000140001101: C3                 ret
  0000000140001102: CC                 int         3
  0000000140001103: CC                 int         3
  0000000140001104: 40 53              push        rbx
  0000000140001106: 48 83 EC 20        sub         rsp,20h
  000000014000110A: B9 01 00 00 00     mov         ecx,1
  000000014000110F: E8 2A 0B 00 00     call        0000000140001C3E
  0000000140001114: E8 5B 05 00 00     call        0000000140001674
  0000000140001119: 8B C8              mov         ecx,eax
  000000014000111B: E8 54 0B 00 00     call        0000000140001C74
  0000000140001120: E8 43 05 00 00     call        0000000140001668
  0000000140001125: 8B D8              mov         ebx,eax
  0000000140001127: E8 78 0B 00 00     call        0000000140001CA4
  000000014000112C: B9 01 00 00 00     mov         ecx,1
  0000000140001131: 89 18              mov         dword ptr [rax],ebx
  0000000140001133: E8 B8 02 00 00     call        00000001400013F0
  0000000140001138: 84 C0              test        al,al
  000000014000113A: 74 73              je          00000001400011AF
  000000014000113C: E8 BB 07 00 00     call        00000001400018FC
  0000000140001141: 48 8D 0D F0 07 00  lea         rcx,[0000000140001938h]
                    00
  0000000140001148: E8 53 04 00 00     call        00000001400015A0
  000000014000114D: E8 1A 05 00 00     call        000000014000166C
  0000000140001152: 8B C8              mov         ecx,eax
  0000000140001154: E8 F1 0A 00 00     call        0000000140001C4A
  0000000140001159: 85 C0              test        eax,eax
  000000014000115B: 75 52              jne         00000001400011AF
  000000014000115D: E8 1A 05 00 00     call        000000014000167C
  0000000140001162: E8 51 05 00 00     call        00000001400016B8
  0000000140001167: 85 C0              test        eax,eax
  0000000140001169: 74 0C              je          0000000140001177
  000000014000116B: 48 8D 0D F6 04 00  lea         rcx,[0000000140001668h]
                    00
  0000000140001172: E8 CD 0A 00 00     call        0000000140001C44
  0000000140001177: E8 14 05 00 00     call        0000000140001690
  000000014000117C: E8 0F 05 00 00     call        0000000140001690
  0000000140001181: E8 E2 04 00 00     call        0000000140001668
  0000000140001186: 8B C8              mov         ecx,eax
  0000000140001188: E8 0B 0B 00 00     call        0000000140001C98
  000000014000118D: E8 FA 04 00 00     call        000000014000168C
  0000000140001192: 84 C0              test        al,al
  0000000140001194: 74 05              je          000000014000119B
  0000000140001196: E8 B5 0A 00 00     call        0000000140001C50
  000000014000119B: E8 C8 04 00 00     call        0000000140001668
  00000001400011A0: E8 87 06 00 00     call        000000014000182C
  00000001400011A5: 85 C0              test        eax,eax
  00000001400011A7: 75 06              jne         00000001400011AF
  00000001400011A9: 48 83 C4 20        add         rsp,20h
  00000001400011AD: 5B                 pop         rbx
  00000001400011AE: C3                 ret
  00000001400011AF: B9 07 00 00 00     mov         ecx,7
  00000001400011B4: E8 27 05 00 00     call        00000001400016E0
  00000001400011B9: CC                 int         3
  00000001400011BA: CC                 int         3
  00000001400011BB: CC                 int         3
  00000001400011BC: 48 83 EC 28        sub         rsp,28h
  00000001400011C0: E8 D7 04 00 00     call        000000014000169C
  00000001400011C5: 33 C0              xor         eax,eax
  00000001400011C7: 48 83 C4 28        add         rsp,28h
  00000001400011CB: C3                 ret
  00000001400011CC: 48 83 EC 28        sub         rsp,28h
  00000001400011D0: E8 B3 06 00 00     call        0000000140001888
  00000001400011D5: E8 8E 04 00 00     call        0000000140001668
  00000001400011DA: 8B C8              mov         ecx,eax
  00000001400011DC: 48 83 C4 28        add         rsp,28h
  00000001400011E0: E9 B9 0A 00 00     jmp         0000000140001C9E
  00000001400011E5: CC                 int         3
  00000001400011E6: CC                 int         3
  00000001400011E7: CC                 int         3
  00000001400011E8: 48 89 5C 24 08     mov         qword ptr [rsp+8],rbx
  00000001400011ED: 48 89 74 24 10     mov         qword ptr [rsp+10h],rsi
  00000001400011F2: 57                 push        rdi
  00000001400011F3: 48 83 EC 30        sub         rsp,30h
  00000001400011F7: B9 01 00 00 00     mov         ecx,1
  00000001400011FC: E8 B3 01 00 00     call        00000001400013B4
  0000000140001201: 84 C0              test        al,al
  0000000140001203: 0F 84 36 01 00 00  je          000000014000133F
  0000000140001209: 40 32 F6           xor         sil,sil
  000000014000120C: 40 88 74 24 20     mov         byte ptr [rsp+20h],sil
  0000000140001211: E8 62 01 00 00     call        0000000140001378
  0000000140001216: 8A D8              mov         bl,al
  0000000140001218: 8B 0D 8A 1E 04 00  mov         ecx,dword ptr [00000001400430A8h]
  000000014000121E: 83 F9 01           cmp         ecx,1
  0000000140001221: 0F 84 23 01 00 00  je          000000014000134A
  0000000140001227: 85 C9              test        ecx,ecx
  0000000140001229: 75 4A              jne         0000000140001275
  000000014000122B: C7 05 73 1E 04 00  mov         dword ptr [00000001400430A8h],1
                    01 00 00 00
  0000000140001235: 48 8D 15 BC 0F 00  lea         rdx,[00000001400021F8h]
                    00
  000000014000123C: 48 8D 0D 9D 0F 00  lea         rcx,[00000001400021E0h]
                    00
  0000000140001243: E8 1A 0A 00 00     call        0000000140001C62
  0000000140001248: 85 C0              test        eax,eax
  000000014000124A: 74 0A              je          0000000140001256
  000000014000124C: B8 FF 00 00 00     mov         eax,0FFh
  0000000140001251: E9 D9 00 00 00     jmp         000000014000132F
  0000000140001256: 48 8D 15 7B 0F 00  lea         rdx,[00000001400021D8h]
                    00
  000000014000125D: 48 8D 0D 64 0F 00  lea         rcx,[00000001400021C8h]
                    00
  0000000140001264: E8 F3 09 00 00     call        0000000140001C5C
  0000000140001269: C7 05 35 1E 04 00  mov         dword ptr [00000001400430A8h],2
                    02 00 00 00
  0000000140001273: EB 08              jmp         000000014000127D
  0000000140001275: 40 B6 01           mov         sil,1
  0000000140001278: 40 88 74 24 20     mov         byte ptr [rsp+20h],sil
  000000014000127D: 8A CB              mov         cl,bl
  000000014000127F: E8 90 02 00 00     call        0000000140001514
  0000000140001284: E8 3B 04 00 00     call        00000001400016C4
  0000000140001289: 48 8B D8           mov         rbx,rax
  000000014000128C: 48 83 38 00        cmp         qword ptr [rax],0
  0000000140001290: 74 1E              je          00000001400012B0
  0000000140001292: 48 8B C8           mov         rcx,rax
  0000000140001295: E8 E2 01 00 00     call        000000014000147C
  000000014000129A: 84 C0              test        al,al
  000000014000129C: 74 12              je          00000001400012B0
  000000014000129E: 45 33 C0           xor         r8d,r8d
  00000001400012A1: 41 8D 50 02        lea         edx,[r8+2]
  00000001400012A5: 33 C9              xor         ecx,ecx
  00000001400012A7: 48 8B 03           mov         rax,qword ptr [rbx]
  00000001400012AA: FF 15 F0 0E 00 00  call        qword ptr [00000001400021A0h]
  00000001400012B0: E8 17 04 00 00     call        00000001400016CC
  00000001400012B5: 48 8B D8           mov         rbx,rax
  00000001400012B8: 48 83 38 00        cmp         qword ptr [rax],0
  00000001400012BC: 74 14              je          00000001400012D2
  00000001400012BE: 48 8B C8           mov         rcx,rax
  00000001400012C1: E8 B6 01 00 00     call        000000014000147C
  00000001400012C6: 84 C0              test        al,al
  00000001400012C8: 74 08              je          00000001400012D2
  00000001400012CA: 48 8B 0B           mov         rcx,qword ptr [rbx]
  00000001400012CD: E8 C0 09 00 00     call        0000000140001C92
  00000001400012D2: E8 7F 09 00 00     call        0000000140001C56
  00000001400012D7: 48 8B F8           mov         rdi,rax
  00000001400012DA: E8 A1 09 00 00     call        0000000140001C80
  00000001400012DF: 48 8B 18           mov         rbx,qword ptr [rax]
  00000001400012E2: E8 93 09 00 00     call        0000000140001C7A
  00000001400012E7: 4C 8B C7           mov         r8,rdi
  00000001400012EA: 48 8B D3           mov         rdx,rbx
  00000001400012ED: 8B 08              mov         ecx,dword ptr [rax]
  00000001400012EF: E8 1C FD FF FF     call        0000000140001010
  00000001400012F4: 8B D8              mov         ebx,eax
  00000001400012F6: E8 39 05 00 00     call        0000000140001834
  00000001400012FB: 84 C0              test        al,al
  00000001400012FD: 74 55              je          0000000140001354
  00000001400012FF: 40 84 F6           test        sil,sil
  0000000140001302: 75 05              jne         0000000140001309
  0000000140001304: E8 7D 09 00 00     call        0000000140001C86
  0000000140001309: 33 D2              xor         edx,edx
  000000014000130B: B1 01              mov         cl,1
  000000014000130D: E8 26 02 00 00     call        0000000140001538
  0000000140001312: 8B C3              mov         eax,ebx
  0000000140001314: EB 19              jmp         000000014000132F
  0000000140001316: 8B D8              mov         ebx,eax
  0000000140001318: E8 17 05 00 00     call        0000000140001834
  000000014000131D: 84 C0              test        al,al
  000000014000131F: 74 3B              je          000000014000135C
  0000000140001321: 80 7C 24 20 00     cmp         byte ptr [rsp+20h],0
  0000000140001326: 75 05              jne         000000014000132D
  0000000140001328: E8 5F 09 00 00     call        0000000140001C8C
  000000014000132D: 8B C3              mov         eax,ebx
  000000014000132F: 48 8B 5C 24 40     mov         rbx,qword ptr [rsp+40h]
  0000000140001334: 48 8B 74 24 48     mov         rsi,qword ptr [rsp+48h]
  0000000140001339: 48 83 C4 30        add         rsp,30h
  000000014000133D: 5F                 pop         rdi
  000000014000133E: C3                 ret
  000000014000133F: B9 07 00 00 00     mov         ecx,7
  0000000140001344: E8 97 03 00 00     call        00000001400016E0
  0000000140001349: 90                 nop
  000000014000134A: B9 07 00 00 00     mov         ecx,7
  000000014000134F: E8 8C 03 00 00     call        00000001400016E0
  0000000140001354: 8B CB              mov         ecx,ebx
  0000000140001356: E8 0D 09 00 00     call        0000000140001C68
  000000014000135B: 90                 nop
  000000014000135C: 8B CB              mov         ecx,ebx
  000000014000135E: E8 0B 09 00 00     call        0000000140001C6E
  0000000140001363: 90                 nop
  0000000140001364: 48 83 EC 28        sub         rsp,28h
  0000000140001368: E8 4B 02 00 00     call        00000001400015B8
  000000014000136D: 48 83 C4 28        add         rsp,28h
  0000000140001371: E9 72 FE FF FF     jmp         00000001400011E8
  0000000140001376: CC                 int         3
  0000000140001377: CC                 int         3
  0000000140001378: 48 83 EC 28        sub         rsp,28h
  000000014000137C: E8 8B 08 00 00     call        0000000140001C0C
  0000000140001381: 85 C0              test        eax,eax
  0000000140001383: 74 21              je          00000001400013A6
  0000000140001385: 65 48 8B 04 25 30  mov         rax,qword ptr gs:[0000000000000030h]
                    00 00 00
  000000014000138E: 48 8B 48 08        mov         rcx,qword ptr [rax+8]
  0000000140001392: EB 05              jmp         0000000140001399
  0000000140001394: 48 3B C8           cmp         rcx,rax
  0000000140001397: 74 14              je          00000001400013AD
  0000000140001399: 33 C0              xor         eax,eax
  000000014000139B: F0 48 0F B1 0D 0C  lock cmpxchg qword ptr [00000001400430B0h],rcx
                    1D 04 00
  00000001400013A4: 75 EE              jne         0000000140001394
  00000001400013A6: 32 C0              xor         al,al
  00000001400013A8: 48 83 C4 28        add         rsp,28h
  00000001400013AC: C3                 ret
  00000001400013AD: B0 01              mov         al,1
  00000001400013AF: EB F7              jmp         00000001400013A8
  00000001400013B1: CC                 int         3
  00000001400013B2: CC                 int         3
  00000001400013B3: CC                 int         3
  00000001400013B4: 48 83 EC 28        sub         rsp,28h
  00000001400013B8: 85 C9              test        ecx,ecx
  00000001400013BA: 75 07              jne         00000001400013C3
  00000001400013BC: C6 05 F5 1C 04 00  mov         byte ptr [00000001400430B8h],1
                    01
  00000001400013C3: E8 AC 05 00 00     call        0000000140001974
  00000001400013C8: E8 BF 02 00 00     call        000000014000168C
  00000001400013CD: 84 C0              test        al,al
  00000001400013CF: 75 04              jne         00000001400013D5
  00000001400013D1: 32 C0              xor         al,al
  00000001400013D3: EB 14              jmp         00000001400013E9
  00000001400013D5: E8 B2 02 00 00     call        000000014000168C
  00000001400013DA: 84 C0              test        al,al
  00000001400013DC: 75 09              jne         00000001400013E7
  00000001400013DE: 33 C9              xor         ecx,ecx
  00000001400013E0: E8 A7 02 00 00     call        000000014000168C
  00000001400013E5: EB EA              jmp         00000001400013D1
  00000001400013E7: B0 01              mov         al,1
  00000001400013E9: 48 83 C4 28        add         rsp,28h
  00000001400013ED: C3                 ret
  00000001400013EE: CC                 int         3
  00000001400013EF: CC                 int         3
  00000001400013F0: 40 53              push        rbx
  00000001400013F2: 48 83 EC 20        sub         rsp,20h
  00000001400013F6: 80 3D BC 1C 04 00  cmp         byte ptr [00000001400430B9h],0
                    00
  00000001400013FD: 8B D9              mov         ebx,ecx
  00000001400013FF: 75 67              jne         0000000140001468
  0000000140001401: 83 F9 01           cmp         ecx,1
  0000000140001404: 77 6A              ja          0000000140001470
  0000000140001406: E8 01 08 00 00     call        0000000140001C0C
  000000014000140B: 85 C0              test        eax,eax
  000000014000140D: 74 28              je          0000000140001437
  000000014000140F: 85 DB              test        ebx,ebx
  0000000140001411: 75 24              jne         0000000140001437
  0000000140001413: 48 8D 0D A6 1C 04  lea         rcx,[00000001400430C0h]
                    00
  000000014000141A: E8 8B 08 00 00     call        0000000140001CAA
  000000014000141F: 85 C0              test        eax,eax
  0000000140001421: 75 10              jne         0000000140001433
  0000000140001423: 48 8D 0D AE 1C 04  lea         rcx,[00000001400430D8h]
                    00
  000000014000142A: E8 7B 08 00 00     call        0000000140001CAA
  000000014000142F: 85 C0              test        eax,eax
  0000000140001431: 74 2E              je          0000000140001461
  0000000140001433: 32 C0              xor         al,al
  0000000140001435: EB 33              jmp         000000014000146A
  0000000140001437: 66 0F 6F 05 01 0E  movdqa      xmm0,xmmword ptr [0000000140002240h]
                    00 00
  000000014000143F: 48 83 C8 FF        or          rax,0FFFFFFFFFFFFFFFFh
  0000000140001443: F3 0F 7F 05 75 1C  movdqu      xmmword ptr [00000001400430C0h],xmm0
                    04 00
  000000014000144B: 48 89 05 7E 1C 04  mov         qword ptr [00000001400430D0h],rax
                    00
  0000000140001452: F3 0F 7F 05 7E 1C  movdqu      xmmword ptr [00000001400430D8h],xmm0
                    04 00
  000000014000145A: 48 89 05 87 1C 04  mov         qword ptr [00000001400430E8h],rax
                    00
  0000000140001461: C6 05 51 1C 04 00  mov         byte ptr [00000001400430B9h],1
                    01
  0000000140001468: B0 01              mov         al,1
  000000014000146A: 48 83 C4 20        add         rsp,20h
  000000014000146E: 5B                 pop         rbx
  000000014000146F: C3                 ret
  0000000140001470: B9 05 00 00 00     mov         ecx,5
  0000000140001475: E8 66 02 00 00     call        00000001400016E0
  000000014000147A: CC                 int         3
  000000014000147B: CC                 int         3
  000000014000147C: 48 83 EC 18        sub         rsp,18h
  0000000140001480: 4C 8B C1           mov         r8,rcx
  0000000140001483: B8 4D 5A 00 00     mov         eax,5A4Dh
  0000000140001488: 66 39 05 71 EB FF  cmp         word ptr [0000000140000000h],ax
                    FF
  000000014000148F: 75 78              jne         0000000140001509
  0000000140001491: 48 63 0D A4 EB FF  movsxd      rcx,dword ptr [000000014000003Ch]
                    FF
  0000000140001498: 48 8D 15 61 EB FF  lea         rdx,[0000000140000000h]
                    FF
  000000014000149F: 48 03 CA           add         rcx,rdx
  00000001400014A2: 81 39 50 45 00 00  cmp         dword ptr [rcx],4550h
  00000001400014A8: 75 5F              jne         0000000140001509
  00000001400014AA: B8 0B 02 00 00     mov         eax,20Bh
  00000001400014AF: 66 39 41 18        cmp         word ptr [rcx+18h],ax
  00000001400014B3: 75 54              jne         0000000140001509
  00000001400014B5: 4C 2B C2           sub         r8,rdx
  00000001400014B8: 0F B7 51 14        movzx       edx,word ptr [rcx+14h]
  00000001400014BC: 48 83 C2 18        add         rdx,18h
  00000001400014C0: 48 03 D1           add         rdx,rcx
  00000001400014C3: 0F B7 41 06        movzx       eax,word ptr [rcx+6]
  00000001400014C7: 48 8D 0C 80        lea         rcx,[rax+rax*4]
  00000001400014CB: 4C 8D 0C CA        lea         r9,[rdx+rcx*8]
  00000001400014CF: 48 89 14 24        mov         qword ptr [rsp],rdx
  00000001400014D3: 49 3B D1           cmp         rdx,r9
  00000001400014D6: 74 18              je          00000001400014F0
  00000001400014D8: 8B 4A 0C           mov         ecx,dword ptr [rdx+0Ch]
  00000001400014DB: 4C 3B C1           cmp         r8,rcx
  00000001400014DE: 72 0A              jb          00000001400014EA
  00000001400014E0: 8B 42 08           mov         eax,dword ptr [rdx+8]
  00000001400014E3: 03 C1              add         eax,ecx
  00000001400014E5: 4C 3B C0           cmp         r8,rax
  00000001400014E8: 72 08              jb          00000001400014F2
  00000001400014EA: 48 83 C2 28        add         rdx,28h
  00000001400014EE: EB DF              jmp         00000001400014CF
  00000001400014F0: 33 D2              xor         edx,edx
  00000001400014F2: 48 85 D2           test        rdx,rdx
  00000001400014F5: 75 04              jne         00000001400014FB
  00000001400014F7: 32 C0              xor         al,al
  00000001400014F9: EB 14              jmp         000000014000150F
  00000001400014FB: 83 7A 24 00        cmp         dword ptr [rdx+24h],0
  00000001400014FF: 7D 04              jge         0000000140001505
  0000000140001501: 32 C0              xor         al,al
  0000000140001503: EB 0A              jmp         000000014000150F
  0000000140001505: B0 01              mov         al,1
  0000000140001507: EB 06              jmp         000000014000150F
  0000000140001509: 32 C0              xor         al,al
  000000014000150B: EB 02              jmp         000000014000150F
  000000014000150D: 32 C0              xor         al,al
  000000014000150F: 48 83 C4 18        add         rsp,18h
  0000000140001513: C3                 ret
  0000000140001514: 40 53              push        rbx
  0000000140001516: 48 83 EC 20        sub         rsp,20h
  000000014000151A: 8A D9              mov         bl,cl
  000000014000151C: E8 EB 06 00 00     call        0000000140001C0C
  0000000140001521: 33 D2              xor         edx,edx
  0000000140001523: 85 C0              test        eax,eax
  0000000140001525: 74 0B              je          0000000140001532
  0000000140001527: 84 DB              test        bl,bl
  0000000140001529: 75 07              jne         0000000140001532
  000000014000152B: 48 87 15 7E 1B 04  xchg        rdx,qword ptr [00000001400430B0h]
                    00
  0000000140001532: 48 83 C4 20        add         rsp,20h
  0000000140001536: 5B                 pop         rbx
  0000000140001537: C3                 ret
  0000000140001538: 40 53              push        rbx
  000000014000153A: 48 83 EC 20        sub         rsp,20h
  000000014000153E: 80 3D 73 1B 04 00  cmp         byte ptr [00000001400430B8h],0
                    00
  0000000140001545: 8A D9              mov         bl,cl
  0000000140001547: 74 04              je          000000014000154D
  0000000140001549: 84 D2              test        dl,dl
  000000014000154B: 75 0C              jne         0000000140001559
  000000014000154D: E8 3A 01 00 00     call        000000014000168C
  0000000140001552: 8A CB              mov         cl,bl
  0000000140001554: E8 33 01 00 00     call        000000014000168C
  0000000140001559: B0 01              mov         al,1
  000000014000155B: 48 83 C4 20        add         rsp,20h
  000000014000155F: 5B                 pop         rbx
  0000000140001560: C3                 ret
  0000000140001561: CC                 int         3
  0000000140001562: CC                 int         3
  0000000140001563: CC                 int         3
  0000000140001564: 40 53              push        rbx
  0000000140001566: 48 83 EC 20        sub         rsp,20h
  000000014000156A: 48 83 3D 4E 1B 04  cmp         qword ptr [00000001400430C0h],0FFFFFFFFFFFFFFFFh
                    00 FF
  0000000140001572: 48 8B D9           mov         rbx,rcx
  0000000140001575: 75 07              jne         000000014000157E
  0000000140001577: E8 3A 07 00 00     call        0000000140001CB6
  000000014000157C: EB 0F              jmp         000000014000158D
  000000014000157E: 48 8B D3           mov         rdx,rbx
  0000000140001581: 48 8D 0D 38 1B 04  lea         rcx,[00000001400430C0h]
                    00
  0000000140001588: E8 23 07 00 00     call        0000000140001CB0
  000000014000158D: 33 D2              xor         edx,edx
  000000014000158F: 85 C0              test        eax,eax
  0000000140001591: 48 0F 44 D3        cmove       rdx,rbx
  0000000140001595: 48 8B C2           mov         rax,rdx
  0000000140001598: 48 83 C4 20        add         rsp,20h
  000000014000159C: 5B                 pop         rbx
  000000014000159D: C3                 ret
  000000014000159E: CC                 int         3
  000000014000159F: CC                 int         3
  00000001400015A0: 48 83 EC 28        sub         rsp,28h
  00000001400015A4: E8 BB FF FF FF     call        0000000140001564
  00000001400015A9: 48 F7 D8           neg         rax
  00000001400015AC: 1B C0              sbb         eax,eax
  00000001400015AE: F7 D8              neg         eax
  00000001400015B0: FF C8              dec         eax
  00000001400015B2: 48 83 C4 28        add         rsp,28h
  00000001400015B6: C3                 ret
  00000001400015B7: CC                 int         3
  00000001400015B8: 48 89 5C 24 18     mov         qword ptr [rsp+18h],rbx
  00000001400015BD: 55                 push        rbp
  00000001400015BE: 48 8B EC           mov         rbp,rsp
  00000001400015C1: 48 83 EC 30        sub         rsp,30h
  00000001400015C5: 48 8B 05 74 1A 00  mov         rax,qword ptr [0000000140003040h]
                    00
  00000001400015CC: 48 BB 32 A2 DF 2D  mov         rbx,2B992DDFA232h
                    99 2B 00 00
  00000001400015D6: 48 3B C3           cmp         rax,rbx
  00000001400015D9: 75 77              jne         0000000140001652
  00000001400015DB: 48 8D 4D 10        lea         rcx,[rbp+10h]
  00000001400015DF: 48 C7 45 10 00 00  mov         qword ptr [rbp+10h],0
                    00 00
  00000001400015E7: FF 15 2B 0A 00 00  call        qword ptr [0000000140002018h]
  00000001400015ED: 48 8B 45 10        mov         rax,qword ptr [rbp+10h]
  00000001400015F1: 48 89 45 F0        mov         qword ptr [rbp-10h],rax
  00000001400015F5: FF 15 15 0A 00 00  call        qword ptr [0000000140002010h]
  00000001400015FB: 8B C0              mov         eax,eax
  00000001400015FD: 48 31 45 F0        xor         qword ptr [rbp-10h],rax
  0000000140001601: FF 15 01 0A 00 00  call        qword ptr [0000000140002008h]
  0000000140001607: 8B C0              mov         eax,eax
  0000000140001609: 48 8D 4D 18        lea         rcx,[rbp+18h]
  000000014000160D: 48 31 45 F0        xor         qword ptr [rbp-10h],rax
  0000000140001611: FF 15 31 0A 00 00  call        qword ptr [0000000140002048h]
  0000000140001617: 8B 45 18           mov         eax,dword ptr [rbp+18h]
  000000014000161A: 48 8D 4D F0        lea         rcx,[rbp-10h]
  000000014000161E: 48 C1 E0 20        shl         rax,20h
  0000000140001622: 48 33 45 18        xor         rax,qword ptr [rbp+18h]
  0000000140001626: 48 33 45 F0        xor         rax,qword ptr [rbp-10h]
  000000014000162A: 48 33 C1           xor         rax,rcx
  000000014000162D: 48 B9 FF FF FF FF  mov         rcx,0FFFFFFFFFFFFh
                    FF FF 00 00
  0000000140001637: 48 23 C1           and         rax,rcx
  000000014000163A: 48 B9 33 A2 DF 2D  mov         rcx,2B992DDFA233h
                    99 2B 00 00
  0000000140001644: 48 3B C3           cmp         rax,rbx
  0000000140001647: 48 0F 44 C1        cmove       rax,rcx
  000000014000164B: 48 89 05 EE 19 00  mov         qword ptr [0000000140003040h],rax
                    00
  0000000140001652: 48 8B 5C 24 50     mov         rbx,qword ptr [rsp+50h]
  0000000140001657: 48 F7 D0           not         rax
  000000014000165A: 48 89 05 1F 1A 00  mov         qword ptr [0000000140003080h],rax
                    00
  0000000140001661: 48 83 C4 30        add         rsp,30h
  0000000140001665: 5D                 pop         rbp
  0000000140001666: C3                 ret
  0000000140001667: CC                 int         3
  0000000140001668: 33 C0              xor         eax,eax
  000000014000166A: C3                 ret
  000000014000166B: CC                 int         3
  000000014000166C: B8 01 00 00 00     mov         eax,1
  0000000140001671: C3                 ret
  0000000140001672: CC                 int         3
  0000000140001673: CC                 int         3
  0000000140001674: B8 00 40 00 00     mov         eax,4000h
  0000000140001679: C3                 ret
  000000014000167A: CC                 int         3
  000000014000167B: CC                 int         3
  000000014000167C: 48 8D 0D 6D 1A 04  lea         rcx,[00000001400430F0h]
                    00
  0000000140001683: 48 FF 25 96 09 00  jmp         qword ptr [0000000140002020h]
                    00
  000000014000168A: CC                 int         3
  000000014000168B: CC                 int         3
  000000014000168C: B0 01              mov         al,1
  000000014000168E: C3                 ret
  000000014000168F: CC                 int         3
  0000000140001690: C2 00 00           ret         0
  0000000140001693: CC                 int         3
  0000000140001694: 48 8D 05 65 1A 04  lea         rax,[0000000140043100h]
                    00
  000000014000169B: C3                 ret
  000000014000169C: 48 83 EC 28        sub         rsp,28h
  00000001400016A0: E8 5B F9 FF FF     call        0000000140001000
  00000001400016A5: 48 83 08 24        or          qword ptr [rax],24h
  00000001400016A9: E8 E6 FF FF FF     call        0000000140001694
  00000001400016AE: 48 83 08 02        or          qword ptr [rax],2
  00000001400016B2: 48 83 C4 28        add         rsp,28h
  00000001400016B6: C3                 ret
  00000001400016B7: CC                 int         3
  00000001400016B8: 33 C0              xor         eax,eax
  00000001400016BA: 39 05 48 19 00 00  cmp         dword ptr [0000000140003008h],eax
  00000001400016C0: 0F 94 C0           sete        al
  00000001400016C3: C3                 ret
  00000001400016C4: 48 8D 05 55 1A 04  lea         rax,[0000000140043120h]
                    00
  00000001400016CB: C3                 ret
  00000001400016CC: 48 8D 05 45 1A 04  lea         rax,[0000000140043118h]
                    00
  00000001400016D3: C3                 ret
  00000001400016D4: C7 05 2A 1A 04 00  mov         dword ptr [0000000140043108h],0
                    00 00 00 00
  00000001400016DE: C3                 ret
  00000001400016DF: CC                 int         3
  00000001400016E0: 48 89 5C 24 08     mov         qword ptr [rsp+8],rbx
  00000001400016E5: 55                 push        rbp
  00000001400016E6: 48 8D AC 24 40 FB  lea         rbp,[rsp+FFFFFFFFFFFFFB40h]
                    FF FF
  00000001400016EE: 48 81 EC C0 05 00  sub         rsp,5C0h
                    00
  00000001400016F5: 8B D9              mov         ebx,ecx
  00000001400016F7: B9 17 00 00 00     mov         ecx,17h
  00000001400016FC: FF 15 36 09 00 00  call        qword ptr [0000000140002038h]
  0000000140001702: 85 C0              test        eax,eax
  0000000140001704: 74 04              je          000000014000170A
  0000000140001706: 8B CB              mov         ecx,ebx
  0000000140001708: CD 29              int         29h
  000000014000170A: B9 03 00 00 00     mov         ecx,3
  000000014000170F: E8 C0 FF FF FF     call        00000001400016D4
  0000000140001714: 33 D2              xor         edx,edx
  0000000140001716: 48 8D 4D F0        lea         rcx,[rbp-10h]
  000000014000171A: 41 B8 D0 04 00 00  mov         r8d,4D0h
  0000000140001720: E8 0D 05 00 00     call        0000000140001C32
  0000000140001725: 48 8D 4D F0        lea         rcx,[rbp-10h]
  0000000140001729: FF 15 F9 08 00 00  call        qword ptr [0000000140002028h]
  000000014000172F: 48 8B 9D E8 00 00  mov         rbx,qword ptr [rbp+00000000000000E8h]
                    00
  0000000140001736: 48 8D 95 D8 04 00  lea         rdx,[rbp+00000000000004D8h]
                    00
  000000014000173D: 48 8B CB           mov         rcx,rbx
  0000000140001740: 45 33 C0           xor         r8d,r8d
  0000000140001743: FF 15 17 09 00 00  call        qword ptr [0000000140002060h]
  0000000140001749: 48 85 C0           test        rax,rax
  000000014000174C: 74 3F              je          000000014000178D
  000000014000174E: 48 8B 95 D8 04 00  mov         rdx,qword ptr [rbp+00000000000004D8h]
                    00
  0000000140001755: 48 8D 8D E0 04 00  lea         rcx,[rbp+00000000000004E0h]
                    00
  000000014000175C: 48 C7 44 24 38 00  mov         qword ptr [rsp+38h],0
                    00 00 00
  0000000140001765: 4C 8B C8           mov         r9,rax
  0000000140001768: 48 89 4C 24 30     mov         qword ptr [rsp+30h],rcx
  000000014000176D: 4C 8B C3           mov         r8,rbx
  0000000140001770: 48 8D 8D E8 04 00  lea         rcx,[rbp+00000000000004E8h]
                    00
  0000000140001777: 48 89 4C 24 28     mov         qword ptr [rsp+28h],rcx
  000000014000177C: 48 8D 4D F0        lea         rcx,[rbp-10h]
  0000000140001780: 48 89 4C 24 20     mov         qword ptr [rsp+20h],rcx
  0000000140001785: 33 C9              xor         ecx,ecx
  0000000140001787: FF 15 CB 08 00 00  call        qword ptr [0000000140002058h]
  000000014000178D: 48 8B 85 C8 04 00  mov         rax,qword ptr [rbp+00000000000004C8h]
                    00
  0000000140001794: 48 8D 4C 24 50     lea         rcx,[rsp+50h]
  0000000140001799: 48 89 85 E8 00 00  mov         qword ptr [rbp+00000000000000E8h],rax
                    00
  00000001400017A0: 33 D2              xor         edx,edx
  00000001400017A2: 48 8D 85 C8 04 00  lea         rax,[rbp+00000000000004C8h]
                    00
  00000001400017A9: 41 B8 98 00 00 00  mov         r8d,98h
  00000001400017AF: 48 83 C0 08        add         rax,8
  00000001400017B3: 48 89 85 88 00 00  mov         qword ptr [rbp+0000000000000088h],rax
                    00
  00000001400017BA: E8 73 04 00 00     call        0000000140001C32
  00000001400017BF: 48 8B 85 C8 04 00  mov         rax,qword ptr [rbp+00000000000004C8h]
                    00
  00000001400017C6: 48 89 44 24 60     mov         qword ptr [rsp+60h],rax
  00000001400017CB: C7 44 24 50 15 00  mov         dword ptr [rsp+50h],40000015h
                    00 40
  00000001400017D3: C7 44 24 54 01 00  mov         dword ptr [rsp+54h],1
                    00 00
  00000001400017DB: FF 15 6F 08 00 00  call        qword ptr [0000000140002050h]
  00000001400017E1: 8B D8              mov         ebx,eax
  00000001400017E3: 33 C9              xor         ecx,ecx
  00000001400017E5: 48 8D 44 24 50     lea         rax,[rsp+50h]
  00000001400017EA: 48 89 44 24 40     mov         qword ptr [rsp+40h],rax
  00000001400017EF: 48 8D 45 F0        lea         rax,[rbp-10h]
  00000001400017F3: 48 89 44 24 48     mov         qword ptr [rsp+48h],rax
  00000001400017F8: FF 15 42 08 00 00  call        qword ptr [0000000140002040h]
  00000001400017FE: 48 8D 4C 24 40     lea         rcx,[rsp+40h]
  0000000140001803: FF 15 F7 07 00 00  call        qword ptr [0000000140002000h]
  0000000140001809: 85 C0              test        eax,eax
  000000014000180B: 75 0D              jne         000000014000181A
  000000014000180D: 83 FB 01           cmp         ebx,1
  0000000140001810: 74 08              je          000000014000181A
  0000000140001812: 8D 48 03           lea         ecx,[rax+3]
  0000000140001815: E8 BA FE FF FF     call        00000001400016D4
  000000014000181A: 48 8B 9C 24 D0 05  mov         rbx,qword ptr [rsp+00000000000005D0h]
                    00 00
  0000000140001822: 48 81 C4 C0 05 00  add         rsp,5C0h
                    00
  0000000140001829: 5D                 pop         rbp
  000000014000182A: C3                 ret
  000000014000182B: CC                 int         3
  000000014000182C: E9 37 FE FF FF     jmp         0000000140001668
  0000000140001831: CC                 int         3
  0000000140001832: CC                 int         3
  0000000140001833: CC                 int         3
  0000000140001834: 48 83 EC 28        sub         rsp,28h
  0000000140001838: 33 C9              xor         ecx,ecx
  000000014000183A: FF 15 F0 07 00 00  call        qword ptr [0000000140002030h]
  0000000140001840: 48 85 C0           test        rax,rax
  0000000140001843: 74 3A              je          000000014000187F
  0000000140001845: B9 4D 5A 00 00     mov         ecx,5A4Dh
  000000014000184A: 66 39 08           cmp         word ptr [rax],cx
  000000014000184D: 75 30              jne         000000014000187F
  000000014000184F: 48 63 48 3C        movsxd      rcx,dword ptr [rax+3Ch]
  0000000140001853: 81 3C 01 50 45 00  cmp         dword ptr [rcx+rax],4550h
                    00
  000000014000185A: 75 23              jne         000000014000187F
  000000014000185C: BA 0B 02 00 00     mov         edx,20Bh
  0000000140001861: 66 39 54 01 18     cmp         word ptr [rcx+rax+18h],dx
  0000000140001866: 75 17              jne         000000014000187F
  0000000140001868: 83 BC 01 84 00 00  cmp         dword ptr [rcx+rax+0000000000000084h],0Eh
                    00 0E
  0000000140001870: 76 0D              jbe         000000014000187F
  0000000140001872: 83 BC 01 F8 00 00  cmp         dword ptr [rcx+rax+00000000000000F8h],0
                    00 00
  000000014000187A: 0F 95 C0           setne       al
  000000014000187D: EB 02              jmp         0000000140001881
  000000014000187F: 32 C0              xor         al,al
  0000000140001881: 48 83 C4 28        add         rsp,28h
  0000000140001885: C3                 ret
  0000000140001886: CC                 int         3
  0000000140001887: CC                 int         3
  0000000140001888: 48 8D 0D 09 00 00  lea         rcx,[0000000140001898h]
                    00
  000000014000188F: 48 FF 25 AA 07 00  jmp         qword ptr [0000000140002040h]
                    00
  0000000140001896: CC                 int         3
  0000000140001897: CC                 int         3
  0000000140001898: 48 89 5C 24 08     mov         qword ptr [rsp+8],rbx
  000000014000189D: 57                 push        rdi
  000000014000189E: 48 83 EC 20        sub         rsp,20h
  00000001400018A2: 48 8B 19           mov         rbx,qword ptr [rcx]
  00000001400018A5: 48 8B F9           mov         rdi,rcx
  00000001400018A8: 81 3B 63 73 6D E0  cmp         dword ptr [rbx],0E06D7363h
  00000001400018AE: 75 24              jne         00000001400018D4
  00000001400018B0: 83 7B 18 04        cmp         dword ptr [rbx+18h],4
  00000001400018B4: 75 1E              jne         00000001400018D4
  00000001400018B6: 8B 53 20           mov         edx,dword ptr [rbx+20h]
  00000001400018B9: 81 FA 20 05 93 19  cmp         edx,19930520h
  00000001400018BF: 74 20              je          00000001400018E1
  00000001400018C1: 8D 82 DF FA 6C E6  lea         eax,[rdx+FFFFFFFFE66CFADFh]
  00000001400018C7: 83 F8 01           cmp         eax,1
  00000001400018CA: 76 15              jbe         00000001400018E1
  00000001400018CC: 81 FA 00 40 99 01  cmp         edx,1994000h
  00000001400018D2: 74 0D              je          00000001400018E1
  00000001400018D4: 48 8B 5C 24 30     mov         rbx,qword ptr [rsp+30h]
  00000001400018D9: 33 C0              xor         eax,eax
  00000001400018DB: 48 83 C4 20        add         rsp,20h
  00000001400018DF: 5F                 pop         rdi
  00000001400018E0: C3                 ret
  00000001400018E1: E8 40 03 00 00     call        0000000140001C26
  00000001400018E6: 48 89 18           mov         qword ptr [rax],rbx
  00000001400018E9: 48 8B 5F 08        mov         rbx,qword ptr [rdi+8]
  00000001400018ED: E8 3A 03 00 00     call        0000000140001C2C
  00000001400018F2: 48 89 18           mov         qword ptr [rax],rbx
  00000001400018F5: E8 C2 03 00 00     call        0000000140001CBC
  00000001400018FA: CC                 int         3
  00000001400018FB: CC                 int         3
  00000001400018FC: 48 89 5C 24 08     mov         qword ptr [rsp+8],rbx
  0000000140001901: 57                 push        rdi
  0000000140001902: 48 83 EC 20        sub         rsp,20h
  0000000140001906: 48 8D 1D D3 0D 00  lea         rbx,[00000001400026E0h]
                    00
  000000014000190D: 48 8D 3D CC 0D 00  lea         rdi,[00000001400026E0h]
                    00
  0000000140001914: EB 12              jmp         0000000140001928
  0000000140001916: 48 8B 03           mov         rax,qword ptr [rbx]
  0000000140001919: 48 85 C0           test        rax,rax
  000000014000191C: 74 06              je          0000000140001924
  000000014000191E: FF 15 7C 08 00 00  call        qword ptr [00000001400021A0h]
  0000000140001924: 48 83 C3 08        add         rbx,8
  0000000140001928: 48 3B DF           cmp         rbx,rdi
  000000014000192B: 72 E9              jb          0000000140001916
  000000014000192D: 48 8B 5C 24 30     mov         rbx,qword ptr [rsp+30h]
  0000000140001932: 48 83 C4 20        add         rsp,20h
  0000000140001936: 5F                 pop         rdi
  0000000140001937: C3                 ret
  0000000140001938: 48 89 5C 24 08     mov         qword ptr [rsp+8],rbx
  000000014000193D: 57                 push        rdi
  000000014000193E: 48 83 EC 20        sub         rsp,20h
  0000000140001942: 48 8D 1D A7 0D 00  lea         rbx,[00000001400026F0h]
                    00
  0000000140001949: 48 8D 3D A0 0D 00  lea         rdi,[00000001400026F0h]
                    00
  0000000140001950: EB 12              jmp         0000000140001964
  0000000140001952: 48 8B 03           mov         rax,qword ptr [rbx]
  0000000140001955: 48 85 C0           test        rax,rax
  0000000140001958: 74 06              je          0000000140001960
  000000014000195A: FF 15 40 08 00 00  call        qword ptr [00000001400021A0h]
  0000000140001960: 48 83 C3 08        add         rbx,8
  0000000140001964: 48 3B DF           cmp         rbx,rdi
  0000000140001967: 72 E9              jb          0000000140001952
  0000000140001969: 48 8B 5C 24 30     mov         rbx,qword ptr [rsp+30h]
  000000014000196E: 48 83 C4 20        add         rsp,20h
  0000000140001972: 5F                 pop         rdi
  0000000140001973: C3                 ret
  0000000140001974: 48 89 5C 24 10     mov         qword ptr [rsp+10h],rbx
  0000000140001979: 48 89 6C 24 18     mov         qword ptr [rsp+18h],rbp
  000000014000197E: 48 89 74 24 20     mov         qword ptr [rsp+20h],rsi
  0000000140001983: 57                 push        rdi
  0000000140001984: 48 83 EC 10        sub         rsp,10h
  0000000140001988: 33 C0              xor         eax,eax
  000000014000198A: 33 C9              xor         ecx,ecx
  000000014000198C: 0F A2              cpuid
  000000014000198E: 81 F1 6E 74 65 6C  xor         ecx,6C65746Eh
  0000000140001994: 81 F2 69 6E 65 49  xor         edx,49656E69h
  000000014000199A: 0B D1              or          edx,ecx
  000000014000199C: 8B E8              mov         ebp,eax
  000000014000199E: B8 01 00 00 00     mov         eax,1
  00000001400019A3: 81 F3 47 65 6E 75  xor         ebx,756E6547h
  00000001400019A9: 0B D3              or          edx,ebx
  00000001400019AB: 8D 48 FF           lea         ecx,[rax-1]
  00000001400019AE: 0F A2              cpuid
  00000001400019B0: 8B F9              mov         edi,ecx
  00000001400019B2: 75 5E              jne         0000000140001A12
  00000001400019B4: 25 F0 3F FF 0F     and         eax,0FFF3FF0h
  00000001400019B9: 48 C7 05 5C 16 00  mov         qword ptr [0000000140003020h],8000h
                    00 00 80 00 00
  00000001400019C4: 48 C7 05 59 16 00  mov         qword ptr [0000000140003028h],0FFFFFFFFFFFFFFFFh
                    00 FF FF FF FF
  00000001400019CF: 3D C0 06 01 00     cmp         eax,106C0h
  00000001400019D4: 74 28              je          00000001400019FE
  00000001400019D6: 3D 60 06 02 00     cmp         eax,20660h
  00000001400019DB: 74 21              je          00000001400019FE
  00000001400019DD: 3D 70 06 02 00     cmp         eax,20670h
  00000001400019E2: 74 1A              je          00000001400019FE
  00000001400019E4: 05 B0 F9 FC FF     add         eax,0FFFCF9B0h
  00000001400019E9: 83 F8 20           cmp         eax,20h
  00000001400019EC: 77 24              ja          0000000140001A12
  00000001400019EE: 48 B9 01 00 01 00  mov         rcx,100010001h
                    01 00 00 00
  00000001400019F8: 48 0F A3 C1        bt          rcx,rax
  00000001400019FC: 73 14              jae         0000000140001A12
  00000001400019FE: 44 8B 05 0B 17 04  mov         r8d,dword ptr [0000000140043110h]
                    00
  0000000140001A05: 41 83 C8 01        or          r8d,1
  0000000140001A09: 44 89 05 00 17 04  mov         dword ptr [0000000140043110h],r8d
                    00
  0000000140001A10: EB 07              jmp         0000000140001A19
  0000000140001A12: 44 8B 05 F7 16 04  mov         r8d,dword ptr [0000000140043110h]
                    00
  0000000140001A19: 45 33 C9           xor         r9d,r9d
  0000000140001A1C: 41 8B F1           mov         esi,r9d
  0000000140001A1F: 45 8B D1           mov         r10d,r9d
  0000000140001A22: 45 8B D9           mov         r11d,r9d
  0000000140001A25: 83 FD 07           cmp         ebp,7
  0000000140001A28: 7C 40              jl          0000000140001A6A
  0000000140001A2A: 41 8D 41 07        lea         eax,[r9+7]
  0000000140001A2E: 33 C9              xor         ecx,ecx
  0000000140001A30: 0F A2              cpuid
  0000000140001A32: 8B F2              mov         esi,edx
  0000000140001A34: 44 8B CB           mov         r9d,ebx
  0000000140001A37: 0F BA E3 09        bt          ebx,9
  0000000140001A3B: 73 0B              jae         0000000140001A48
  0000000140001A3D: 41 83 C8 02        or          r8d,2
  0000000140001A41: 44 89 05 C8 16 04  mov         dword ptr [0000000140043110h],r8d
                    00
  0000000140001A48: 83 F8 01           cmp         eax,1
  0000000140001A4B: 7C 0D              jl          0000000140001A5A
  0000000140001A4D: B8 07 00 00 00     mov         eax,7
  0000000140001A52: 8D 48 FA           lea         ecx,[rax-6]
  0000000140001A55: 0F A2              cpuid
  0000000140001A57: 44 8B D2           mov         r10d,edx
  0000000140001A5A: B8 24 00 00 00     mov         eax,24h
  0000000140001A5F: 3B E8              cmp         ebp,eax
  0000000140001A61: 7C 07              jl          0000000140001A6A
  0000000140001A63: 33 C9              xor         ecx,ecx
  0000000140001A65: 0F A2              cpuid
  0000000140001A67: 44 8B DB           mov         r11d,ebx
  0000000140001A6A: 48 8B 05 9F 15 00  mov         rax,qword ptr [0000000140003010h]
                    00
  0000000140001A71: 48 83 E0 FE        and         rax,0FFFFFFFFFFFFFFFEh
  0000000140001A75: C7 05 99 15 00 00  mov         dword ptr [0000000140003018h],1
                    01 00 00 00
  0000000140001A7F: C7 05 93 15 00 00  mov         dword ptr [000000014000301Ch],2
                    02 00 00 00
  0000000140001A89: 48 89 05 80 15 00  mov         qword ptr [0000000140003010h],rax
                    00
  0000000140001A90: 0F BA E7 14        bt          edi,14h
  0000000140001A94: 73 1F              jae         0000000140001AB5
  0000000140001A96: 48 83 E0 EF        and         rax,0FFFFFFFFFFFFFFEFh
  0000000140001A9A: C7 05 74 15 00 00  mov         dword ptr [0000000140003018h],2
                    02 00 00 00
  0000000140001AA4: 48 89 05 65 15 00  mov         qword ptr [0000000140003010h],rax
                    00
  0000000140001AAB: C7 05 67 15 00 00  mov         dword ptr [000000014000301Ch],6
                    06 00 00 00
  0000000140001AB5: 0F BA E7 1B        bt          edi,1Bh
  0000000140001AB9: 0F 83 33 01 00 00  jae         0000000140001BF2
  0000000140001ABF: 33 C9              xor         ecx,ecx
  0000000140001AC1: 0F 01 D0           xgetbv
  0000000140001AC4: 48 C1 E2 20        shl         rdx,20h
  0000000140001AC8: 48 0B D0           or          rdx,rax
  0000000140001ACB: 48 89 54 24 20     mov         qword ptr [rsp+20h],rdx
  0000000140001AD0: 0F BA E7 1C        bt          edi,1Ch
  0000000140001AD4: 0F 83 FC 00 00 00  jae         0000000140001BD6
  0000000140001ADA: 48 8B 44 24 20     mov         rax,qword ptr [rsp+20h]
  0000000140001ADF: 24 06              and         al,6
  0000000140001AE1: 3C 06              cmp         al,6
  0000000140001AE3: 0F 85 ED 00 00 00  jne         0000000140001BD6
  0000000140001AE9: 8B 05 2D 15 00 00  mov         eax,dword ptr [000000014000301Ch]
  0000000140001AEF: B2 E0              mov         dl,0E0h
  0000000140001AF1: 83 C8 08           or          eax,8
  0000000140001AF4: C7 05 1A 15 00 00  mov         dword ptr [0000000140003018h],3
                    03 00 00 00
  0000000140001AFE: 89 05 18 15 00 00  mov         dword ptr [000000014000301Ch],eax
  0000000140001B04: 41 F6 C1 20        test        r9b,20h
  0000000140001B08: 74 62              je          0000000140001B6C
  0000000140001B0A: 83 C8 20           or          eax,20h
  0000000140001B0D: C7 05 01 15 00 00  mov         dword ptr [0000000140003018h],5
                    05 00 00 00
  0000000140001B17: 89 05 FF 14 00 00  mov         dword ptr [000000014000301Ch],eax
  0000000140001B1D: B9 00 00 03 D0     mov         ecx,0D0030000h
  0000000140001B22: 48 8B 05 E7 14 00  mov         rax,qword ptr [0000000140003010h]
                    00
  0000000140001B29: 44 23 C9           and         r9d,ecx
  0000000140001B2C: 48 83 E0 FD        and         rax,0FFFFFFFFFFFFFFFDh
  0000000140001B30: 48 89 05 D9 14 00  mov         qword ptr [0000000140003010h],rax
                    00
  0000000140001B37: 44 3B C9           cmp         r9d,ecx
  0000000140001B3A: 75 37              jne         0000000140001B73
  0000000140001B3C: 48 8B 44 24 20     mov         rax,qword ptr [rsp+20h]
  0000000140001B41: 22 C2              and         al,dl
  0000000140001B43: 3A C2              cmp         al,dl
  0000000140001B45: 75 25              jne         0000000140001B6C
  0000000140001B47: 48 8B 05 C2 14 00  mov         rax,qword ptr [0000000140003010h]
                    00
  0000000140001B4E: 83 0D C7 14 00 00  or          dword ptr [000000014000301Ch],40h
                    40
  0000000140001B55: 48 83 E0 DB        and         rax,0FFFFFFFFFFFFFFDBh
  0000000140001B59: C7 05 B5 14 00 00  mov         dword ptr [0000000140003018h],6
                    06 00 00 00
  0000000140001B63: 48 89 05 A6 14 00  mov         qword ptr [0000000140003010h],rax
                    00
  0000000140001B6A: EB 07              jmp         0000000140001B73
  0000000140001B6C: 48 8B 05 9D 14 00  mov         rax,qword ptr [0000000140003010h]
                    00
  0000000140001B73: 0F BA E6 17        bt          esi,17h
  0000000140001B77: 73 0C              jae         0000000140001B85
  0000000140001B79: 48 0F BA F0 18     btr         rax,18h
  0000000140001B7E: 48 89 05 8B 14 00  mov         qword ptr [0000000140003010h],rax
                    00
  0000000140001B85: 41 0F BA E2 13     bt          r10d,13h
  0000000140001B8A: 73 4A              jae         0000000140001BD6
  0000000140001B8C: 48 8B 44 24 20     mov         rax,qword ptr [rsp+20h]
  0000000140001B91: 22 C2              and         al,dl
  0000000140001B93: 3A C2              cmp         al,dl
  0000000140001B95: 75 3F              jne         0000000140001BD6
  0000000140001B97: 41 8B CB           mov         ecx,r11d
  0000000140001B9A: 41 8B C3           mov         eax,r11d
  0000000140001B9D: 48 C1 E9 10        shr         rcx,10h
  0000000140001BA1: 25 FF 00 04 00     and         eax,400FFh
  0000000140001BA6: 83 E1 06           and         ecx,6
  0000000140001BA9: 89 05 5D 15 04 00  mov         dword ptr [000000014004310Ch],eax
  0000000140001BAF: 48 81 C9 29 00 00  or          rcx,1000029h
                    01
  0000000140001BB6: 48 F7 D1           not         rcx
  0000000140001BB9: 48 23 0D 50 14 00  and         rcx,qword ptr [0000000140003010h]
                    00
  0000000140001BC0: 48 89 0D 49 14 00  mov         qword ptr [0000000140003010h],rcx
                    00
  0000000140001BC7: 3C 01              cmp         al,1
  0000000140001BC9: 76 0B              jbe         0000000140001BD6
  0000000140001BCB: 48 83 E1 BF        and         rcx,0FFFFFFFFFFFFFFBFh
  0000000140001BCF: 48 89 0D 3A 14 00  mov         qword ptr [0000000140003010h],rcx
                    00
  0000000140001BD6: 41 0F BA E2 15     bt          r10d,15h
  0000000140001BDB: 73 15              jae         0000000140001BF2
  0000000140001BDD: 48 8B 44 24 20     mov         rax,qword ptr [rsp+20h]
  0000000140001BE2: 48 0F BA E0 13     bt          rax,13h
  0000000140001BE7: 73 09              jae         0000000140001BF2
  0000000140001BE9: 48 0F BA 35 1E 14  btr         qword ptr [0000000140003010h],7
                    00 00 07
  0000000140001BF2: 48 8B 5C 24 28     mov         rbx,qword ptr [rsp+28h]
  0000000140001BF7: 33 C0              xor         eax,eax
  0000000140001BF9: 48 8B 6C 24 30     mov         rbp,qword ptr [rsp+30h]
  0000000140001BFE: 48 8B 74 24 38     mov         rsi,qword ptr [rsp+38h]
  0000000140001C03: 48 83 C4 10        add         rsp,10h
  0000000140001C07: 5F                 pop         rdi
  0000000140001C08: C3                 ret
  0000000140001C09: CC                 int         3
  0000000140001C0A: CC                 int         3
  0000000140001C0B: CC                 int         3
  0000000140001C0C: 33 C0              xor         eax,eax
  0000000140001C0E: 39 05 7C 14 00 00  cmp         dword ptr [0000000140003090h],eax
  0000000140001C14: 0F 95 C0           setne       al
  0000000140001C17: C3                 ret
  0000000140001C18: CC                 int         3
  0000000140001C19: CC                 int         3
  0000000140001C1A: CC                 int         3
  0000000140001C1B: CC                 int         3
  0000000140001C1C: CC                 int         3
  0000000140001C1D: CC                 int         3
  0000000140001C1E: CC                 int         3
  0000000140001C1F: CC                 int         3
  0000000140001C20: FF 25 5A 04 00 00  jmp         qword ptr [0000000140002080h]
  0000000140001C26: FF 25 4C 04 00 00  jmp         qword ptr [0000000140002078h]
  0000000140001C2C: FF 25 3E 04 00 00  jmp         qword ptr [0000000140002070h]
  0000000140001C32: FF 25 50 04 00 00  jmp         qword ptr [0000000140002088h]
  0000000140001C38: FF 25 B2 04 00 00  jmp         qword ptr [00000001400020F0h]
  0000000140001C3E: FF 25 B4 04 00 00  jmp         qword ptr [00000001400020F8h]
  0000000140001C44: FF 25 76 04 00 00  jmp         qword ptr [00000001400020C0h]
  0000000140001C4A: FF 25 08 05 00 00  jmp         qword ptr [0000000140002158h]
  0000000140001C50: FF 25 FA 04 00 00  jmp         qword ptr [0000000140002150h]
  0000000140001C56: FF 25 EC 04 00 00  jmp         qword ptr [0000000140002148h]
  0000000140001C5C: FF 25 DE 04 00 00  jmp         qword ptr [0000000140002140h]
  0000000140001C62: FF 25 D0 04 00 00  jmp         qword ptr [0000000140002138h]
  0000000140001C68: FF 25 C2 04 00 00  jmp         qword ptr [0000000140002130h]
  0000000140001C6E: FF 25 B4 04 00 00  jmp         qword ptr [0000000140002128h]
  0000000140001C74: FF 25 06 05 00 00  jmp         qword ptr [0000000140002180h]
  0000000140001C7A: FF 25 98 04 00 00  jmp         qword ptr [0000000140002118h]
  0000000140001C80: FF 25 7A 04 00 00  jmp         qword ptr [0000000140002100h]
  0000000140001C86: FF 25 84 04 00 00  jmp         qword ptr [0000000140002110h]
  0000000140001C8C: FF 25 76 04 00 00  jmp         qword ptr [0000000140002108h]
  0000000140001C92: FF 25 48 04 00 00  jmp         qword ptr [00000001400020E0h]
  0000000140001C98: FF 25 12 04 00 00  jmp         qword ptr [00000001400020B0h]
  0000000140001C9E: FF 25 FC 03 00 00  jmp         qword ptr [00000001400020A0h]
  0000000140001CA4: FF 25 CE 04 00 00  jmp         qword ptr [0000000140002178h]
  0000000140001CAA: FF 25 20 04 00 00  jmp         qword ptr [00000001400020D0h]
  0000000140001CB0: FF 25 22 04 00 00  jmp         qword ptr [00000001400020D8h]
  0000000140001CB6: FF 25 64 04 00 00  jmp         qword ptr [0000000140002120h]
  0000000140001CBC: FF 25 26 04 00 00  jmp         qword ptr [00000001400020E8h]
  0000000140001CC2: FF 25 C8 03 00 00  jmp         qword ptr [0000000140002090h]
  0000000140001CC8: CC                 int         3
  0000000140001CC9: CC                 int         3
  0000000140001CCA: CC                 int         3
  0000000140001CCB: CC                 int         3
  0000000140001CCC: CC                 int         3
  0000000140001CCD: CC                 int         3
  0000000140001CCE: CC                 int         3
  0000000140001CCF: CC                 int         3
  0000000140001CD0: CC                 int         3
  0000000140001CD1: CC                 int         3
  0000000140001CD2: CC                 int         3
  0000000140001CD3: CC                 int         3
  0000000140001CD4: CC                 int         3
  0000000140001CD5: CC                 int         3
  0000000140001CD6: 66 66 0F 1F 84 00  nop         word ptr [rax+rax+0000000000000000h]
                    00 00 00 00
  0000000140001CE0: FF E0              jmp         rax
  0000000140001CE2: CC                 int         3
  0000000140001CE3: CC                 int         3
  0000000140001CE4: CC                 int         3
  0000000140001CE5: CC                 int         3
  0000000140001CE6: CC                 int         3
  0000000140001CE7: CC                 int         3
  0000000140001CE8: CC                 int         3
  0000000140001CE9: CC                 int         3
  0000000140001CEA: CC                 int         3
  0000000140001CEB: CC                 int         3
  0000000140001CEC: CC                 int         3
  0000000140001CED: CC                 int         3
  0000000140001CEE: CC                 int         3
  0000000140001CEF: CC                 int         3
  0000000140001CF0: CC                 int         3
  0000000140001CF1: CC                 int         3
  0000000140001CF2: CC                 int         3
  0000000140001CF3: CC                 int         3
  0000000140001CF4: CC                 int         3
  0000000140001CF5: CC                 int         3
  0000000140001CF6: 66 66 0F 1F 84 00  nop         word ptr [rax+rax+0000000000000000h]
                    00 00 00 00
  0000000140001D00: FF 25 9A 04 00 00  jmp         qword ptr [00000001400021A0h]
  0000000140001D06: 40 55              push        rbp
  0000000140001D08: 48 83 EC 20        sub         rsp,20h
  0000000140001D0C: 48 8B EA           mov         rbp,rdx
  0000000140001D0F: 48 8B D1           mov         rdx,rcx
  0000000140001D12: 48 8B 09           mov         rcx,qword ptr [rcx]
  0000000140001D15: 8B 09              mov         ecx,dword ptr [rcx]
  0000000140001D17: E8 1C FF FF FF     call        0000000140001C38
  0000000140001D1C: 90                 nop
  0000000140001D1D: 48 83 C4 20        add         rsp,20h
  0000000140001D21: 5D                 pop         rbp
  0000000140001D22: C3                 ret
  0000000140001D23: CC                 int         3
  0000000140001D24: 40 55              push        rbp
  0000000140001D26: 48 8B EA           mov         rbp,rdx
  0000000140001D29: 48 8B 01           mov         rax,qword ptr [rcx]
  0000000140001D2C: 33 C9              xor         ecx,ecx
  0000000140001D2E: 81 38 05 00 00 C0  cmp         dword ptr [rax],0C0000005h
  0000000140001D34: 0F 94 C1           sete        cl
  0000000140001D37: 8B C1              mov         eax,ecx
  0000000140001D39: 5D                 pop         rbp
  0000000140001D3A: C3                 ret
  0000000140001D3B: CC                 int         3

  Summary

       41000 .data
        1000 .pdata
        1000 .rdata
        1000 .reloc
        1000 .rsrc
        1000 .text
